	.file	"multstore.c"
	.text
.Ltext0:
	.globl	mult2
	.type	mult2, @function
mult2:
.LFB0:
	.file 1 "multstore.c"
	.loc 1 1 0
	.cfi_startproc
.LVL0:
	.loc 1 2 0
	movq	%rdi, %rax
	imulq	%rsi, %rax
.LVL1:
	.loc 1 4 0
	ret
	.cfi_endproc
.LFE0:
	.size	mult2, .-mult2
	.globl	multstore
	.type	multstore, @function
multstore:
.LFB1:
	.loc 1 6 0
	.cfi_startproc
.LVL2:
	pushq	%rbx
	.cfi_def_cfa_offset 16
	.cfi_offset 3, -16
	movq	%rdx, %rbx
	.loc 1 7 0
	call	mult2
.LVL3:
	.loc 1 8 0
	movq	%rax, (%rbx)
	.loc 1 9 0
	popq	%rbx
	.cfi_def_cfa_offset 8
.LVL4:
	ret
	.cfi_endproc
.LFE1:
	.size	multstore, .-multstore
	.globl	main
	.type	main, @function
main:
.LFB2:
	.loc 1 11 0
	.cfi_startproc
	subq	$16, %rsp
	.cfi_def_cfa_offset 24
	.loc 1 12 0
	movq	$0, 8(%rsp)
	.loc 1 13 0
	leaq	8(%rsp), %rdx
	movl	$20, %esi
	movl	$10, %edi
	call	multstore
.LVL5:
	.loc 1 14 0
	addq	$16, %rsp
	.cfi_def_cfa_offset 8
	ret
	.cfi_endproc
.LFE2:
	.size	main, .-main
.Letext0:
	.section	.note.GNU-stack,"",@progbits
